; Function Attrs: inlinehint nounwind uwtable
define internal fastcc i32 @Cbs3_ManAnalyze(ptr noundef %0, i32 noundef %1, i32 noundef range(i32 -1073741824, 1073741824) %2, i32 noundef range(i32 -1073741824, 1073741824) %3, i32 noundef %4) unnamed_addr #10 {
  %6 = getelementptr inbounds nuw i8, ptr %0, i64 92
  %7 = load i32, ptr %6, align 4, !tbaa !53
  %8 = getelementptr inbounds nuw i8, ptr %0, i64 96
  %9 = load i32, ptr %8, align 8, !tbaa !54
  %10 = icmp eq i32 %7, %9
  br i1 %10, label %11, label %._crit_edge.i

._crit_edge.i:                                    ; preds = %5
  %.phi.trans.insert.i = getelementptr inbounds nuw i8, ptr %0, i64 104
  %.pre.i = load ptr, ptr %.phi.trans.insert.i, align 8, !tbaa !55
  br label %Cbs3_QuePush.exit

11:                                               ; preds = %5
  %12 = shl nsw i32 %7, 1
  store i32 %12, ptr %8, align 8, !tbaa !54
  %13 = getelementptr inbounds nuw i8, ptr %0, i64 104
  %14 = load ptr, ptr %13, align 8, !tbaa !55
  %.not.i = icmp eq ptr %14, null
  %15 = sext i32 %12 to i64
  %16 = shl nsw i64 %15, 2
  br i1 %.not.i, label %19, label %17

17:                                               ; preds = %11
  %18 = tail call ptr @realloc(ptr noundef nonnull %14, i64 noundef %16) #24
  %.pre11.pre.i = load i32, ptr %6, align 4, !tbaa !53
  br label %21

19:                                               ; preds = %11
  %20 = tail call noalias ptr @malloc(i64 noundef %16) #23
  br label %21

21:                                               ; preds = %19, %17
  %.pre11.i = phi i32 [ %.pre11.pre.i, %17 ], [ %7, %19 ]
  %22 = phi ptr [ %18, %17 ], [ %20, %19 ]
  store ptr %22, ptr %13, align 8, !tbaa !55
  br label %Cbs3_QuePush.exit

Cbs3_QuePush.exit:                                ; preds = %._crit_edge.i, %21
  %23 = phi i32 [ %7, %._crit_edge.i ], [ %.pre11.i, %21 ]
  %24 = phi ptr [ %.pre.i, %._crit_edge.i ], [ %22, %21 ]
  %25 = add nsw i32 %23, 1
  store i32 %25, ptr %6, align 4, !tbaa !53
  %26 = sext i32 %23 to i64
  %27 = getelementptr inbounds i32, ptr %24, i64 %26
  store i32 0, ptr %27, align 4, !tbaa !37
  %28 = load i32, ptr %6, align 4, !tbaa !53
  %29 = load i32, ptr %8, align 8, !tbaa !54
  %30 = icmp eq i32 %28, %29
  br i1 %30, label %31, label %Cbs3_QuePush.exit34

31:                                               ; preds = %Cbs3_QuePush.exit
  %32 = shl nsw i32 %28, 1
  store i32 %32, ptr %8, align 8, !tbaa !54
  %33 = getelementptr inbounds nuw i8, ptr %0, i64 104
  %34 = sext i32 %32 to i64
  %35 = shl nsw i64 %34, 2
  %36 = tail call ptr @realloc(ptr noundef nonnull %24, i64 noundef %35) #24
  %.pre11.pre.i32 = load i32, ptr %6, align 4, !tbaa !53
  store ptr %36, ptr %33, align 8, !tbaa !55
  br label %Cbs3_QuePush.exit34

Cbs3_QuePush.exit34:                              ; preds = %Cbs3_QuePush.exit, %31
  %37 = phi i32 [ %.pre11.pre.i32, %31 ], [ %28, %Cbs3_QuePush.exit ]
  %38 = phi ptr [ %36, %31 ], [ %24, %Cbs3_QuePush.exit ]
  %39 = add nsw i32 %37, 1
  store i32 %39, ptr %6, align 4, !tbaa !53
  %40 = sext i32 %37 to i64
  %41 = getelementptr inbounds i32, ptr %38, i64 %40
  store i32 0, ptr %41, align 4, !tbaa !37
  %.not = icmp eq i32 %3, 0
  br i1 %.not, label %86, label %42

42:                                               ; preds = %Cbs3_QuePush.exit34
  %43 = load i32, ptr %6, align 4, !tbaa !53
  %44 = load i32, ptr %8, align 8, !tbaa !54
  %45 = icmp eq i32 %43, %44
  br i1 %45, label %46, label %Cbs3_QuePush.exit41

46:                                               ; preds = %42
  %47 = shl nsw i32 %43, 1
  store i32 %47, ptr %8, align 8, !tbaa !54
  %48 = getelementptr inbounds nuw i8, ptr %0, i64 104
  %49 = sext i32 %47 to i64
  %50 = shl nsw i64 %49, 2
  %51 = tail call ptr @realloc(ptr noundef nonnull %38, i64 noundef %50) #24
  %.pre11.pre.i39 = load i32, ptr %6, align 4, !tbaa !53
  store ptr %51, ptr %48, align 8, !tbaa !55
  br label %Cbs3_QuePush.exit41

Cbs3_QuePush.exit41:                              ; preds = %42, %46
  %52 = phi i32 [ %.pre11.pre.i39, %46 ], [ %43, %42 ]
  %53 = phi ptr [ %51, %46 ], [ %38, %42 ]
  %54 = add nsw i32 %52, 1
  store i32 %54, ptr %6, align 4, !tbaa !53
  %55 = sext i32 %52 to i64
  %56 = getelementptr inbounds i32, ptr %53, i64 %55
  store i32 %2, ptr %56, align 4, !tbaa !37
  %57 = load i32, ptr %6, align 4, !tbaa !53
  %58 = load i32, ptr %8, align 8, !tbaa !54
  %59 = icmp eq i32 %57, %58
  br i1 %59, label %60, label %Cbs3_QuePush.exit48

60:                                               ; preds = %Cbs3_QuePush.exit41
  %61 = shl nsw i32 %57, 1
  store i32 %61, ptr %8, align 8, !tbaa !54
  %62 = getelementptr inbounds nuw i8, ptr %0, i64 104
  %63 = sext i32 %61 to i64
  %64 = shl nsw i64 %63, 2
  %65 = tail call ptr @realloc(ptr noundef nonnull %53, i64 noundef %64) #24
  %.pre11.pre.i46 = load i32, ptr %6, align 4, !tbaa !53
  store ptr %65, ptr %62, align 8, !tbaa !55
  br label %Cbs3_QuePush.exit48

Cbs3_QuePush.exit48:                              ; preds = %Cbs3_QuePush.exit41, %60
  %66 = phi i32 [ %.pre11.pre.i46, %60 ], [ %57, %Cbs3_QuePush.exit41 ]
  %67 = phi ptr [ %65, %60 ], [ %53, %Cbs3_QuePush.exit41 ]
  %68 = add nsw i32 %66, 1
  store i32 %68, ptr %6, align 4, !tbaa !53
  %69 = sext i32 %66 to i64
  %70 = getelementptr inbounds i32, ptr %67, i64 %69
  store i32 %3, ptr %70, align 4, !tbaa !37
  %.not26 = icmp eq i32 %4, 0
  br i1 %.not26, label %.loopexit, label %71

71:                                               ; preds = %Cbs3_QuePush.exit48
  %72 = load i32, ptr %6, align 4, !tbaa !53
  %73 = load i32, ptr %8, align 8, !tbaa !54
  %74 = icmp eq i32 %72, %73
  br i1 %74, label %75, label %Cbs3_QuePush.exit55

75:                                               ; preds = %71
  %76 = shl nsw i32 %72, 1
  store i32 %76, ptr %8, align 8, !tbaa !54
  %77 = getelementptr inbounds nuw i8, ptr %0, i64 104
  %78 = sext i32 %76 to i64
  %79 = shl nsw i64 %78, 2
  %80 = tail call ptr @realloc(ptr noundef nonnull %67, i64 noundef %79) #24
  %.pre11.pre.i53 = load i32, ptr %6, align 4, !tbaa !53
  store ptr %80, ptr %77, align 8, !tbaa !55
  br label %Cbs3_QuePush.exit55

Cbs3_QuePush.exit55:                              ; preds = %71, %75
  %81 = phi i32 [ %.pre11.pre.i53, %75 ], [ %72, %71 ]
  %82 = phi ptr [ %80, %75 ], [ %67, %71 ]
  %83 = add nsw i32 %81, 1
  store i32 %83, ptr %6, align 4, !tbaa !53
  %84 = sext i32 %81 to i64
  %85 = getelementptr inbounds i32, ptr %82, i64 %84
  store i32 %4, ptr %85, align 4, !tbaa !37
  br label %.loopexit

86:                                               ; preds = %Cbs3_QuePush.exit34
  %87 = getelementptr i8, ptr %0, i64 104
  %88 = sext i32 %4 to i64
  %89 = getelementptr inbounds i32, ptr %38, i64 %88
  %90 = load i32, ptr %89, align 4, !tbaa !37
  %91 = load i32, ptr %6, align 4, !tbaa !53
  %92 = add nsw i32 %91, %90
  %93 = load i32, ptr %8, align 8, !tbaa !54
  %94 = icmp sgt i32 %92, %93
  br i1 %94, label %95, label %.Cbs3_QueGrow.exit_crit_edge

.Cbs3_QueGrow.exit_crit_edge:                     ; preds = %86
  %.val27.pre = load ptr, ptr %87, align 8, !tbaa !28
  br label %Cbs3_QueGrow.exit

95:                                               ; preds = %86
  %96 = shl nsw i32 %93, 1
  store i32 %96, ptr %8, align 8, !tbaa !54
  %97 = sext i32 %96 to i64
  %98 = shl nsw i64 %97, 2
  %99 = tail call ptr @realloc(ptr noundef nonnull %38, i64 noundef %98) #24
  store ptr %99, ptr %87, align 8, !tbaa !55
  br label %Cbs3_QueGrow.exit

Cbs3_QueGrow.exit:                                ; preds = %.Cbs3_QueGrow.exit_crit_edge, %95
  %.val27 = phi ptr [ %.val27.pre, %.Cbs3_QueGrow.exit_crit_edge ], [ %99, %95 ]
  %100 = getelementptr inbounds i32, ptr %.val27, i64 %88
  %101 = getelementptr inbounds nuw i8, ptr %100, i64 4
  %102 = icmp sgt i32 %90, 0
  br i1 %102, label %.lr.ph, label %.loopexit

.lr.ph:                                           ; preds = %Cbs3_QueGrow.exit
  %wide.trip.count = zext nneg i32 %90 to i64
  br label %103

103:                                              ; preds = %.lr.ph, %Cbs3_QuePush.exit63
  %104 = phi ptr [ %.val27, %.lr.ph ], [ %.pre.i5968, %Cbs3_QuePush.exit63 ]
  %indvars.iv = phi i64 [ 0, %.lr.ph ], [ %indvars.iv.next, %Cbs3_QuePush.exit63 ]
  %105 = getelementptr inbounds nuw i32, ptr %101, i64 %indvars.iv
  %106 = load i32, ptr %105, align 4, !tbaa !37
  %107 = ashr i32 %106, 1
  %108 = load i32, ptr %6, align 4, !tbaa !53
  %109 = load i32, ptr %8, align 8, !tbaa !54
  %110 = icmp eq i32 %108, %109
  br i1 %110, label %111, label %Cbs3_QuePush.exit63

111:                                              ; preds = %103
  %112 = shl nsw i32 %108, 1
  store i32 %112, ptr %8, align 8, !tbaa !54
  %.not.i60 = icmp eq ptr %104, null
  %113 = sext i32 %112 to i64
  %114 = shl nsw i64 %113, 2
  br i1 %.not.i60, label %117, label %115

115:                                              ; preds = %111
  %116 = tail call ptr @realloc(ptr noundef nonnull %104, i64 noundef %114) #24
  %.pre11.pre.i61 = load i32, ptr %6, align 4, !tbaa !53
  br label %119

117:                                              ; preds = %111
  %118 = tail call noalias ptr @malloc(i64 noundef %114) #23
  br label %119

119:                                              ; preds = %117, %115
  %.pre11.i62 = phi i32 [ %.pre11.pre.i61, %115 ], [ %108, %117 ]
  %120 = phi ptr [ %116, %115 ], [ %118, %117 ]
  store ptr %120, ptr %87, align 8, !tbaa !55
  br label %Cbs3_QuePush.exit63

Cbs3_QuePush.exit63:                              ; preds = %103, %119
  %.pre.i5968 = phi ptr [ %120, %119 ], [ %104, %103 ]
  %121 = phi i32 [ %.pre11.i62, %119 ], [ %108, %103 ]
  %122 = add nsw i32 %121, 1
  store i32 %122, ptr %6, align 4, !tbaa !53
  %123 = sext i32 %121 to i64
  %124 = getelementptr inbounds i32, ptr %.pre.i5968, i64 %123
  store i32 %107, ptr %124, align 4, !tbaa !37
  %indvars.iv.next = add nuw nsw i64 %indvars.iv, 1
  %exitcond.not = icmp eq i64 %indvars.iv.next, %wide.trip.count
  br i1 %exitcond.not, label %.loopexit, label %103, !llvm.loop !66

.loopexit:                                        ; preds = %Cbs3_QuePush.exit63, %Cbs3_QueGrow.exit, %Cbs3_QuePush.exit48, %Cbs3_QuePush.exit55
  %125 = tail call fastcc i32 @Cbs3_ManDeriveReason(ptr noundef nonnull %0, i32 noundef %1)
  ret i32 %125
}